; Function Attrs: mustprogress uwtable
define void @_ZN8QuantLib23BachelierSwaptionEngineC2ERKNS_6HandleINS_18YieldTermStructureEEEdRKNS_10DayCounterENS_6detail24BlackStyleSwaptionEngineINS9_13BachelierSpecEE16CashAnnuityModelE(ptr noundef nonnull align 8 dereferenceable(628) %this, ptr nocapture noundef nonnull readonly align 8 dereferenceable(16) %discountCurve, double noundef %vol, ptr noundef nonnull align 8 dereferenceable(16) %dc, i32 noundef %model) unnamed_addr #7 align 2 personality ptr @__gxx_personality_v0 {
entry:
  %agg.tmp = alloca %"class.QuantLib::Handle", align 8
  %0 = load ptr, ptr %discountCurve, align 8, !tbaa !39
  store ptr %0, ptr %agg.tmp, align 8, !tbaa !39
  %pn.i.i = getelementptr inbounds nuw i8, ptr %agg.tmp, i64 8
  %pn3.i.i = getelementptr inbounds nuw i8, ptr %discountCurve, i64 8
  %1 = load ptr, ptr %pn3.i.i, align 8, !tbaa !37
  store ptr %1, ptr %pn.i.i, align 8, !tbaa !37
  %cmp.not.i.i.i = icmp eq ptr %1, null
  br i1 %cmp.not.i.i.i, label %_ZN8QuantLib6HandleINS_18YieldTermStructureEEC2ERKS2_.exit, label %if.then.i.i.i

if.then.i.i.i:                                    ; preds = %entry
  %use_count_.i.i.i.i = getelementptr inbounds nuw i8, ptr %1, i64 8
  %2 = atomicrmw add ptr %use_count_.i.i.i.i, i32 1 monotonic, align 4
  br label %_ZN8QuantLib6HandleINS_18YieldTermStructureEEC2ERKS2_.exit

_ZN8QuantLib6HandleINS_18YieldTermStructureEEC2ERKS2_.exit: ; preds = %entry, %if.then.i.i.i
  %conv = uitofp i32 %model to double
  invoke void @_ZN8QuantLib6detail24BlackStyleSwaptionEngineINS0_13BachelierSpecEEC2ENS_6HandleINS_18YieldTermStructureEEEdRKNS_10DayCounterEdNS3_16CashAnnuityModelE(ptr noundef nonnull align 8 dereferenceable(628) %this, ptr noundef nonnull %agg.tmp, double noundef %vol, ptr noundef nonnull align 8 dereferenceable(16) %dc, double noundef %conv, i32 noundef 1)
          to label %invoke.cont unwind label %lpad

invoke.cont:                                      ; preds = %_ZN8QuantLib6HandleINS_18YieldTermStructureEEC2ERKS2_.exit
  %3 = load ptr, ptr %pn.i.i, align 8, !tbaa !37
  %cmp.not.i.i.i2 = icmp eq ptr %3, null
  br i1 %cmp.not.i.i.i2, label %_ZN8QuantLib6HandleINS_18YieldTermStructureEED2Ev.exit, label %if.then.i.i.i3

if.then.i.i.i3:                                   ; preds = %invoke.cont
  %use_count_.i.i.i.i4 = getelementptr inbounds nuw i8, ptr %3, i64 8
  %4 = atomicrmw sub ptr %use_count_.i.i.i.i4, i32 1 acq_rel, align 4
  %cmp.i.i.i.i = icmp eq i32 %4, 1
  br i1 %cmp.i.i.i.i, label %if.then.i.i.i.i, label %_ZN8QuantLib6HandleINS_18YieldTermStructureEED2Ev.exit

if.then.i.i.i.i:                                  ; preds = %if.then.i.i.i3
  %vtable.i.i.i.i = load ptr, ptr %3, align 8, !tbaa !35
  %vfn.i.i.i.i = getelementptr inbounds i8, ptr %vtable.i.i.i.i, i64 16
  %5 = load ptr, ptr %vfn.i.i.i.i, align 8
  invoke void %5(ptr noundef nonnull align 8 dereferenceable(16) %3)
          to label %.noexc.i.i.i unwind label %terminate.lpad.i.i.i

.noexc.i.i.i:                                     ; preds = %if.then.i.i.i.i
  %weak_count_.i.i.i.i.i = getelementptr inbounds nuw i8, ptr %3, i64 12
  %6 = atomicrmw sub ptr %weak_count_.i.i.i.i.i, i32 1 acq_rel, align 4
  %cmp.i.i.i.i.i = icmp eq i32 %6, 1
  br i1 %cmp.i.i.i.i.i, label %if.then.i.i.i.i.i, label %_ZN8QuantLib6HandleINS_18YieldTermStructureEED2Ev.exit

if.then.i.i.i.i.i:                                ; preds = %.noexc.i.i.i
  %vtable.i.i.i.i.i = load ptr, ptr %3, align 8, !tbaa !35
  %vfn.i.i.i.i.i = getelementptr inbounds i8, ptr %vtable.i.i.i.i.i, i64 24
  %7 = load ptr, ptr %vfn.i.i.i.i.i, align 8
  invoke void %7(ptr noundef nonnull align 8 dereferenceable(16) %3)
          to label %_ZN8QuantLib6HandleINS_18YieldTermStructureEED2Ev.exit unwind label %terminate.lpad.i.i.i

terminate.lpad.i.i.i:                             ; preds = %if.then.i.i.i.i.i, %if.then.i.i.i.i
  %8 = landingpad { ptr, i32 }
          catch ptr null
  %9 = extractvalue { ptr, i32 } %8, 0
  call void @__clang_call_terminate(ptr %9) #28
  unreachable

_ZN8QuantLib6HandleINS_18YieldTermStructureEED2Ev.exit: ; preds = %invoke.cont, %if.then.i.i.i3, %.noexc.i.i.i, %if.then.i.i.i.i.i
  store ptr getelementptr inbounds inrange(-16, 56) (i8, ptr @_ZTVN8QuantLib23BachelierSwaptionEngineE, i64 16), ptr %this, align 8, !tbaa !35
  %add.ptr = getelementptr inbounds i8, ptr %this, i64 56
  store ptr getelementptr inbounds inrange(-16, 32) (i8, ptr @_ZTVN8QuantLib23BachelierSwaptionEngineE, i64 88), ptr %add.ptr, align 8, !tbaa !35
  ret void

lpad:                                             ; preds = %_ZN8QuantLib6HandleINS_18YieldTermStructureEEC2ERKS2_.exit
  %10 = landingpad { ptr, i32 }
          cleanup
  call void @_ZN8QuantLib6HandleINS_18YieldTermStructureEED2Ev(ptr noundef nonnull align 8 dereferenceable(16) %agg.tmp) #27
  resume { ptr, i32 } %10
}